; Function Attrs: mustprogress uwtable
define void @_ZN11llama_mlock4initEPv(ptr noundef nonnull readonly align 8 captures(none) dereferenceable(8) %0, ptr noundef %1) local_unnamed_addr #0 align 2 {
  %3 = load ptr, ptr %0, align 8, !tbaa !70
  %4 = load ptr, ptr %3, align 8, !tbaa !72
  %5 = icmp eq ptr %4, null
  %6 = getelementptr inbounds nuw i8, ptr %3, i64 8
  %7 = load i64, ptr %6, align 8
  %8 = icmp eq i64 %7, 0
  %or.cond.i = select i1 %5, i1 %8, i1 false
  br i1 %or.cond.i, label %_ZN11llama_mlock4impl4initEPv.exit, label %9

9:                                                ; preds = %2
  tail call void (ptr, i32, ptr, ...) @ggml_abort(ptr noundef nonnull @.str.5, i32 noundef 550, ptr noundef nonnull @.str.6, ptr noundef nonnull @.str.12) #26
  unreachable

_ZN11llama_mlock4impl4initEPv.exit:               ; preds = %2
  store ptr %1, ptr %3, align 8, !tbaa !72
  ret void
}